target datalayout = "e-m:e-p270:32:32-p271:32:32-p272:64:64-i64:64-i128:128-f80:128-n8:16:32:64-S128"
target triple = "x86_64-pc-linux-gnu"

%struct.opj_codec_private = type { %union.anon, ptr, %struct.opj_event_mgr, i32, ptr, ptr, ptr, ptr }
%union.anon = type { %struct.opj_decompression }
%struct.opj_decompression = type { ptr, ptr, ptr, ptr, ptr, ptr, ptr, ptr, ptr, ptr, ptr, ptr }
%struct.opj_event_mgr = type { ptr, ptr, ptr, ptr, ptr, ptr }
%struct.opj_compression = type { ptr, ptr, ptr, ptr, ptr, ptr, ptr }

; Function Attrs: nounwind uwtable
define hidden i32 @opj_write_tile(ptr noundef %0, i32 noundef %1, ptr noundef %2, i32 noundef %3, ptr noundef %4) #0 {
  %6 = alloca i32, align 4
  %7 = alloca ptr, align 8
  %8 = alloca i32, align 4
  %9 = alloca ptr, align 8
  %10 = alloca i32, align 4
  %11 = alloca ptr, align 8
  %12 = alloca ptr, align 8
  %13 = alloca ptr, align 8
  %14 = alloca i32, align 4
  store ptr %0, ptr %7, align 8, !tbaa !3
  store i32 %1, ptr %8, align 4, !tbaa !20
  store ptr %2, ptr %9, align 8, !tbaa !44
  store i32 %3, ptr %10, align 4, !tbaa !20
  store ptr %4, ptr %11, align 8, !tbaa !3
  %15 = load ptr, ptr %7, align 8, !tbaa !3
  %16 = icmp ne ptr %15, null
  br i1 %16, label %17, label %47

17:                                               ; preds = %5
  %18 = load ptr, ptr %11, align 8, !tbaa !3
  %19 = icmp ne ptr %18, null
  br i1 %19, label %20, label %47

20:                                               ; preds = %17
  %21 = load ptr, ptr %9, align 8, !tbaa !44
  %22 = icmp ne ptr %21, null
  br i1 %22, label %23, label %47

23:                                               ; preds = %20
  call void @llvm.lifetime.start.p0(i64 8, ptr %12) #5
  %24 = load ptr, ptr %7, align 8, !tbaa !3
  store ptr %24, ptr %12, align 8, !tbaa !9
  call void @llvm.lifetime.start.p0(i64 8, ptr %13) #5
  %25 = load ptr, ptr %11, align 8, !tbaa !3
  store ptr %25, ptr %13, align 8, !tbaa !38
  %26 = load ptr, ptr %12, align 8, !tbaa !9
  %27 = getelementptr inbounds nuw %struct.opj_codec_private, ptr %26, i32 0, i32 3
  %28 = load i32, ptr %27, align 8, !tbaa !21
  %29 = icmp ne i32 %28, 0
  br i1 %29, label %30, label %31

30:                                               ; preds = %23
  store i32 0, ptr %6, align 4
  store i32 1, ptr %14, align 4
  br label %46

31:                                               ; preds = %23
  %32 = load ptr, ptr %12, align 8, !tbaa !9
  %33 = getelementptr inbounds nuw %struct.opj_codec_private, ptr %32, i32 0, i32 0
  %34 = getelementptr inbounds nuw %struct.opj_compression, ptr %33, i32 0, i32 2
  %35 = load ptr, ptr %34, align 8, !tbaa !25
  %36 = load ptr, ptr %12, align 8, !tbaa !9
  %37 = getelementptr inbounds nuw %struct.opj_codec_private, ptr %36, i32 0, i32 1
  %38 = load ptr, ptr %37, align 8, !tbaa !27
  %39 = load i32, ptr %8, align 4, !tbaa !20
  %40 = load ptr, ptr %9, align 8, !tbaa !44
  %41 = load i32, ptr %10, align 4, !tbaa !20
  %42 = load ptr, ptr %13, align 8, !tbaa !38
  %43 = load ptr, ptr %12, align 8, !tbaa !9
  %44 = getelementptr inbounds nuw %struct.opj_codec_private, ptr %43, i32 0, i32 2
  %45 = call i32 %35(ptr noundef %38, i32 noundef %39, ptr noundef %40, i32 noundef %41, ptr noundef %42, ptr noundef %44)
  store i32 %45, ptr %6, align 4
  store i32 1, ptr %14, align 4
  br label %46

46:                                               ; preds = %31, %30
  call void @llvm.lifetime.end.p0(i64 8, ptr %13) #5
  call void @llvm.lifetime.end.p0(i64 8, ptr %12) #5
  br label %48

47:                                               ; preds = %20, %17, %5
  store i32 0, ptr %6, align 4
  br label %48

48:                                               ; preds = %47, %46
  %49 = load i32, ptr %6, align 4
  ret i32 %49
}