; Function Attrs: nounwind uwtable
define hidden i32 @opj_write_tile(ptr noundef %0, i32 noundef %1, ptr noundef %2, i32 noundef %3, ptr noundef %4) local_unnamed_addr #2 {
  %6 = icmp ne ptr %0, null
  %7 = icmp ne ptr %4, null
  %or.cond = and i1 %6, %7
  %8 = icmp ne ptr %2, null
  %or.cond3 = and i1 %8, %or.cond
  br i1 %or.cond3, label %9, label %19

9:                                                ; preds = %5
  %10 = getelementptr inbounds nuw i8, ptr %0, i64 152
  %11 = load i32, ptr %10, align 8, !tbaa !15
  %.not = icmp eq i32 %11, 0
  br i1 %.not, label %12, label %19

12:                                               ; preds = %9
  %13 = getelementptr inbounds nuw i8, ptr %0, i64 16
  %14 = load ptr, ptr %13, align 8, !tbaa !19
  %15 = getelementptr inbounds nuw i8, ptr %0, i64 96
  %16 = load ptr, ptr %15, align 8, !tbaa !21
  %17 = getelementptr inbounds nuw i8, ptr %0, i64 104
  %18 = tail call i32 %14(ptr noundef %16, i32 noundef %1, ptr noundef nonnull %2, i32 noundef %3, ptr noundef nonnull %4, ptr noundef nonnull %17) #8
  br label %19

19:                                               ; preds = %5, %12, %9
  %.1 = phi i32 [ %18, %12 ], [ 0, %9 ], [ 0, %5 ]
  ret i32 %.1
}